target datalayout = "e-m:e-p270:32:32-p271:32:32-p272:64:64-i64:64-i128:128-f80:128-n8:16:32:64-S128"
target triple = "x86_64-pc-linux-gnu"

%"class.std::vector" = type { %"struct.std::_Vector_base" }
%"struct.std::_Vector_base" = type { %"struct.std::_Vector_base<std::__cxx11::basic_string<char>, std::allocator<std::__cxx11::basic_string<char>>>::_Vector_impl" }
%"struct.std::_Vector_base<std::__cxx11::basic_string<char>, std::allocator<std::__cxx11::basic_string<char>>>::_Vector_impl" = type { %"struct.std::_Vector_base<std::__cxx11::basic_string<char>, std::allocator<std::__cxx11::basic_string<char>>>::_Vector_impl_data" }
%"struct.std::_Vector_base<std::__cxx11::basic_string<char>, std::allocator<std::__cxx11::basic_string<char>>>::_Vector_impl_data" = type { ptr, ptr, ptr }
%"class.absl::debian2::strings_internal::Splitter" = type <{ %"class.absl::debian2::string_view", %"class.absl::debian2::ByChar", [7 x i8] }>
%"class.absl::debian2::string_view" = type { ptr, i64 }
%"class.absl::debian2::ByChar" = type { i8 }
%"class.absl::debian2::strings_internal::ConvertibleToStringView" = type { %"class.absl::debian2::string_view" }
%"struct.absl::debian2::strings_internal::Splitter<absl::debian2::ByChar, absl::debian2::AllowEmpty, absl::debian2::string_view>::ConvertToContainer" = type { i8 }
%class.anon = type { i8 }

; Function Attrs: mustprogress nounwind uwtable
define linkonce_odr void @_ZZN4absl7debian211string_view19CheckLengthInternalEmENKUlvE_clEv(ptr noundef nonnull align 1 dereferenceable(1) %0) #1 comdat align 2 {
  %2 = alloca ptr, align 8
  store ptr %0, ptr %2, align 8
  br label %3

3:                                                ; preds = %1
  call void @llvm.trap()
  unreachable

4:                                                ; No predecessors!
  ret void
}

; Function Attrs: mustprogress uwtable
define linkonce_odr noundef i64 @_ZN4absl7debian211string_view19CheckLengthInternalEm(i64 noundef %0) #0 comdat align 2 {
  %2 = alloca i64, align 8
  %3 = alloca %class.anon, align 1
  store i64 %0, ptr %2, align 8
  %4 = load i64, ptr %2, align 8
  %5 = icmp ule i64 %4, 9223372036854775807
  br i1 %5, label %6, label %7

6:                                                ; preds = %1
  br label %8

7:                                                ; preds = %1
  call void @_ZZN4absl7debian211string_view19CheckLengthInternalEmENKUlvE_clEv(ptr noundef nonnull align 1 dereferenceable(1) %3)
  br label %8

8:                                                ; preds = %7, %6
  %9 = load i64, ptr %2, align 8
  ret i64 %9
}

; Function Attrs: mustprogress nounwind uwtable
define linkonce_odr noundef i64 @_ZN4absl7debian211string_view14StrlenInternalEPKc(ptr noundef %0) #1 comdat align 2 {
  %2 = alloca ptr, align 8
  store ptr %0, ptr %2, align 8
  %3 = load ptr, ptr %2, align 8
  %4 = call i64 @strlen(ptr noundef %3) #12
  ret i64 %4
}

; Function Attrs: mustprogress nounwind uwtable
define linkonce_odr void @_ZN4absl7debian216strings_internal8SplitterINS0_6ByCharENS0_10AllowEmptyENS0_11string_viewEEC2ES5_S3_S4_(ptr noundef nonnull align 8 dereferenceable(18) %0, ptr %1, i64 %2, i8 %3) unnamed_addr #1 comdat align 2 {
  %5 = alloca %"class.absl::debian2::string_view", align 8
  %6 = alloca %"class.absl::debian2::ByChar", align 1
  %7 = alloca ptr, align 8
  %8 = getelementptr inbounds nuw { ptr, i64 }, ptr %5, i32 0, i32 0
  store ptr %1, ptr %8, align 8
  %9 = getelementptr inbounds nuw { ptr, i64 }, ptr %5, i32 0, i32 1
  store i64 %2, ptr %9, align 8
  %10 = getelementptr inbounds nuw %"class.absl::debian2::ByChar", ptr %6, i32 0, i32 0
  store i8 %3, ptr %10, align 1
  store ptr %0, ptr %7, align 8
  %11 = load ptr, ptr %7, align 8
  %12 = getelementptr inbounds nuw %"class.absl::debian2::strings_internal::Splitter", ptr %11, i32 0, i32 0
  call void @llvm.memcpy.p0.p0.i64(ptr align 8 %12, ptr align 8 %5, i64 16, i1 false)
  %13 = getelementptr inbounds nuw %"class.absl::debian2::strings_internal::Splitter", ptr %11, i32 0, i32 1
  call void @llvm.memcpy.p0.p0.i64(ptr align 8 %13, ptr align 1 %6, i64 1, i1 false)
  ret void
}

; Function Attrs: mustprogress nounwind uwtable
define linkonce_odr void @_ZN4absl7debian26ByCharC2Ec(ptr noundef nonnull align 1 dereferenceable(1) %0, i8 noundef signext %1) unnamed_addr #1 comdat align 2 {
  %3 = alloca ptr, align 8
  %4 = alloca i8, align 1
  store ptr %0, ptr %3, align 8
  store i8 %1, ptr %4, align 1
  %5 = load ptr, ptr %3, align 8
  %6 = getelementptr inbounds nuw %"class.absl::debian2::ByChar", ptr %5, i32 0, i32 0
  %7 = load i8, ptr %4, align 1
  store i8 %7, ptr %6, align 1
  ret void
}

; Function Attrs: mustprogress nounwind uwtable
define linkonce_odr { ptr, i64 } @_ZNK4absl7debian216strings_internal23ConvertibleToStringView5valueEv(ptr noundef nonnull align 8 dereferenceable(16) %0) #1 comdat align 2 {
  %2 = alloca %"class.absl::debian2::string_view", align 8
  %3 = alloca ptr, align 8
  store ptr %0, ptr %3, align 8
  %4 = load ptr, ptr %3, align 8
  %5 = getelementptr inbounds nuw %"class.absl::debian2::strings_internal::ConvertibleToStringView", ptr %4, i32 0, i32 0
  call void @llvm.memcpy.p0.p0.i64(ptr align 8 %2, ptr align 8 %5, i64 16, i1 false)
  %6 = load { ptr, i64 }, ptr %2, align 8
  ret { ptr, i64 } %6
}

; Function Attrs: mustprogress uwtable
define linkonce_odr void @_ZN4absl7debian211string_viewC2EPKc(ptr noundef nonnull align 8 dereferenceable(16) %0, ptr noundef %1) unnamed_addr #0 comdat align 2 {
  %3 = alloca ptr, align 8
  %4 = alloca ptr, align 8
  store ptr %0, ptr %3, align 8
  store ptr %1, ptr %4, align 8
  %5 = load ptr, ptr %3, align 8
  %6 = getelementptr inbounds nuw %"class.absl::debian2::string_view", ptr %5, i32 0, i32 0
  %7 = load ptr, ptr %4, align 8
  store ptr %7, ptr %6, align 8
  %8 = getelementptr inbounds nuw %"class.absl::debian2::string_view", ptr %5, i32 0, i32 1
  %9 = load ptr, ptr %4, align 8
  %10 = icmp ne ptr %9, null
  br i1 %10, label %11, label %15

11:                                               ; preds = %2
  %12 = load ptr, ptr %4, align 8
  %13 = call noundef i64 @_ZN4absl7debian211string_view14StrlenInternalEPKc(ptr noundef %12)
  %14 = call noundef i64 @_ZN4absl7debian211string_view19CheckLengthInternalEm(i64 noundef %13)
  br label %16

15:                                               ; preds = %2
  br label %16

16:                                               ; preds = %15, %11
  %17 = phi i64 [ %14, %11 ], [ 0, %15 ]
  store i64 %17, ptr %8, align 8
  ret void
}

; Function Attrs: mustprogress uwtable
define linkonce_odr void @_ZNK4absl7debian216strings_internal8SplitterINS0_6ByCharENS0_10AllowEmptyENS0_11string_viewEEcvT_ISt6vectorINSt7__cxx1112basic_stringIcSt11char_traitsIcESaIcEEESaISF_EEvEEv(ptr dead_on_unwind noalias writable sret(%"class.std::vector") align 8 %0, ptr noundef nonnull align 8 dereferenceable(18) %1) #0 comdat align 2 {
  %3 = alloca ptr, align 8
  %4 = alloca ptr, align 8
  %5 = alloca %"struct.absl::debian2::strings_internal::Splitter<absl::debian2::ByChar, absl::debian2::AllowEmpty, absl::debian2::string_view>::ConvertToContainer", align 1
  store ptr %0, ptr %3, align 8
  store ptr %1, ptr %4, align 8
  %6 = load ptr, ptr %4, align 8
  call void @_ZNK4absl7debian216strings_internal8SplitterINS0_6ByCharENS0_10AllowEmptyENS0_11string_viewEE18ConvertToContainerISt6vectorINSt7__cxx1112basic_stringIcSt11char_traitsIcESaIcEEESaISE_EESE_Lb0EEclERKS6_(ptr dead_on_unwind writable sret(%"class.std::vector") align 8 %0, ptr noundef nonnull align 1 dereferenceable(1) %5, ptr noundef nonnull align 8 dereferenceable(18) %6)
  ret void
}

; Function Attrs: mustprogress uwtable
define linkonce_odr void @_ZN4absl7debian28StrSplitIcEENS0_16strings_internal8SplitterINS2_15SelectDelimiterIT_E4typeENS0_10AllowEmptyENS0_11string_viewEEENS2_23ConvertibleToStringViewES5_(ptr dead_on_unwind noalias writable sret(%"class.absl::debian2::strings_internal::Splitter") align 8 %0, ptr %1, i64 %2, i8 noundef signext %3) #0 comdat {
  %5 = alloca %"class.absl::debian2::strings_internal::ConvertibleToStringView", align 8
  %6 = alloca i8, align 1
  %7 = alloca %"class.absl::debian2::string_view", align 8
  %8 = alloca %"class.absl::debian2::ByChar", align 1
  %9 = getelementptr inbounds nuw { ptr, i64 }, ptr %5, i32 0, i32 0
  store ptr %1, ptr %9, align 8
  %10 = getelementptr inbounds nuw { ptr, i64 }, ptr %5, i32 0, i32 1
  store i64 %2, ptr %10, align 8
  store i8 %3, ptr %6, align 1
  %11 = call { ptr, i64 } @_ZNK4absl7debian216strings_internal23ConvertibleToStringView5valueEv(ptr noundef nonnull align 8 dereferenceable(16) %5)
  %12 = getelementptr inbounds nuw { ptr, i64 }, ptr %7, i32 0, i32 0
  %13 = extractvalue { ptr, i64 } %11, 0
  store ptr %13, ptr %12, align 8
  %14 = getelementptr inbounds nuw { ptr, i64 }, ptr %7, i32 0, i32 1
  %15 = extractvalue { ptr, i64 } %11, 1
  store i64 %15, ptr %14, align 8
  %16 = load i8, ptr %6, align 1
  call void @_ZN4absl7debian26ByCharC2Ec(ptr noundef nonnull align 1 dereferenceable(1) %8, i8 noundef signext %16)
  %17 = getelementptr inbounds nuw { ptr, i64 }, ptr %7, i32 0, i32 0
  %18 = load ptr, ptr %17, align 8
  %19 = getelementptr inbounds nuw { ptr, i64 }, ptr %7, i32 0, i32 1
  %20 = load i64, ptr %19, align 8
  %21 = getelementptr inbounds nuw %"class.absl::debian2::ByChar", ptr %8, i32 0, i32 0
  %22 = load i8, ptr %21, align 1
  call void @_ZN4absl7debian216strings_internal8SplitterINS0_6ByCharENS0_10AllowEmptyENS0_11string_viewEEC2ES5_S3_S4_(ptr noundef nonnull align 8 dereferenceable(18) %0, ptr %18, i64 %20, i8 %22)
  ret void
}

; Function Attrs: mustprogress uwtable
define linkonce_odr void @_ZN4absl7debian216strings_internal23ConvertibleToStringViewC2EPKc(ptr noundef nonnull align 8 dereferenceable(16) %0, ptr noundef %1) unnamed_addr #0 comdat align 2 {
  %3 = alloca ptr, align 8
  %4 = alloca ptr, align 8
  store ptr %0, ptr %3, align 8
  store ptr %1, ptr %4, align 8
  %5 = load ptr, ptr %3, align 8
  %6 = getelementptr inbounds nuw %"class.absl::debian2::strings_internal::ConvertibleToStringView", ptr %5, i32 0, i32 0
  %7 = load ptr, ptr %4, align 8
  call void @_ZN4absl7debian211string_viewC2EPKc(ptr noundef nonnull align 8 dereferenceable(16) %6, ptr noundef %7)
  ret void
}

; Function Attrs: mustprogress uwtable
define void @_ZN10open_spiel5chess25Chess960StartingPositionsB5cxx11Ev(ptr dead_on_unwind noalias writable sret(%"class.std::vector") align 8 %0) #0 {
  %2 = alloca ptr, align 8
  %3 = alloca %"class.absl::debian2::strings_internal::Splitter", align 8
  %4 = alloca %"class.absl::debian2::strings_internal::ConvertibleToStringView", align 8
  store ptr %0, ptr %2, align 8
  call void @_ZN4absl7debian216strings_internal23ConvertibleToStringViewC2EPKc(ptr noundef nonnull align 8 dereferenceable(16) %4, ptr noundef @.str)
  %5 = getelementptr inbounds nuw { ptr, i64 }, ptr %4, i32 0, i32 0
  %6 = load ptr, ptr %5, align 8
  %7 = getelementptr inbounds nuw { ptr, i64 }, ptr %4, i32 0, i32 1
  %8 = load i64, ptr %7, align 8
  call void @_ZN4absl7debian28StrSplitIcEENS0_16strings_internal8SplitterINS2_15SelectDelimiterIT_E4typeENS0_10AllowEmptyENS0_11string_viewEEENS2_23ConvertibleToStringViewES5_(ptr dead_on_unwind writable sret(%"class.absl::debian2::strings_internal::Splitter") align 8 %3, ptr %6, i64 %8, i8 noundef signext 10)
  call void @_ZNK4absl7debian216strings_internal8SplitterINS0_6ByCharENS0_10AllowEmptyENS0_11string_viewEEcvT_ISt6vectorINSt7__cxx1112basic_stringIcSt11char_traitsIcESaIcEEESaISF_EEvEEv(ptr dead_on_unwind writable sret(%"class.std::vector") align 8 %0, ptr noundef nonnull align 8 dereferenceable(18) %3)
  ret void
}