; Function Attrs: mustprogress uwtable
define void @_ZN10open_spiel5chess25Chess960StartingPositionsB5cxx11Ev(ptr dead_on_unwind noalias writable sret(%"class.std::vector") align 8 %0) local_unnamed_addr #0 {
_ZN4absl7debian216strings_internal23ConvertibleToStringViewC2EPKc.exit:
  %1 = alloca %"struct.absl::debian2::strings_internal::Splitter<absl::debian2::ByChar, absl::debian2::AllowEmpty, absl::debian2::string_view>::ConvertToContainer", align 1
  %2 = alloca %"class.absl::debian2::strings_internal::Splitter", align 8
  store ptr @.str, ptr %2, align 8, !alias.scope !4
  %.sroa.2.0..sroa_idx.i1.i = getelementptr inbounds nuw i8, ptr %2, i64 8
  store i64 54719, ptr %.sroa.2.0..sroa_idx.i1.i, align 8, !alias.scope !4
  %3 = getelementptr inbounds nuw i8, ptr %2, i64 16
  store i8 10, ptr %3, align 8, !alias.scope !4
  call void @llvm.lifetime.start.p0(i64 1, ptr nonnull %1)
  call void @_ZNK4absl7debian216strings_internal8SplitterINS0_6ByCharENS0_10AllowEmptyENS0_11string_viewEE18ConvertToContainerISt6vectorINSt7__cxx1112basic_stringIcSt11char_traitsIcESaIcEEESaISE_EESE_Lb0EEclERKS6_(ptr dead_on_unwind writable sret(%"class.std::vector") align 8 %0, ptr noundef nonnull align 1 dereferenceable(1) %1, ptr noundef nonnull align 8 dereferenceable(18) %2)
  call void @llvm.lifetime.end.p0(i64 1, ptr nonnull %1)
  ret void
}